target datalayout = "e-m:e-p270:32:32-p271:32:32-p272:64:64-i64:64-i128:128-f80:128-n8:16:32:64-S128"
target triple = "x86_64-pc-linux-gnu"

; Function Attrs: mustprogress uwtable
define internal void @_ZL16stbi__stdio_skipPvi(ptr noundef %0, i32 noundef %1) #3 {
  %3 = alloca ptr, align 8
  %4 = alloca i32, align 4
  %5 = alloca i32, align 4
  store ptr %0, ptr %3, align 8, !tbaa !9
  store i32 %1, ptr %4, align 4, !tbaa !10
  call void @llvm.lifetime.start.p0(i64 4, ptr %5) #22
  %6 = load ptr, ptr %3, align 8, !tbaa !9
  %7 = load i32, ptr %4, align 4, !tbaa !10
  %8 = sext i32 %7 to i64
  %9 = call i32 @fseek(ptr noundef %6, i64 noundef %8, i32 noundef 1)
  %10 = load ptr, ptr %3, align 8, !tbaa !9
  %11 = call i32 @fgetc(ptr noundef %10)
  store i32 %11, ptr %5, align 4, !tbaa !10
  %12 = load i32, ptr %5, align 4, !tbaa !10
  %13 = icmp ne i32 %12, -1
  br i1 %13, label %14, label %18

14:                                               ; preds = %2
  %15 = load i32, ptr %5, align 4, !tbaa !10
  %16 = load ptr, ptr %3, align 8, !tbaa !9
  %17 = call i32 @ungetc(i32 noundef %15, ptr noundef %16)
  br label %18

18:                                               ; preds = %14, %2
  call void @llvm.lifetime.end.p0(i64 4, ptr %5) #22
  ret void
}