; Function Attrs: mustprogress nofree nounwind uwtable
define internal void @_ZL16stbi__stdio_skipPvi(ptr noundef captures(none) %0, i32 noundef %1) #8 {
  %3 = sext i32 %1 to i64
  %4 = tail call i32 @fseek(ptr noundef %0, i64 noundef %3, i32 noundef 1)
  %5 = tail call i32 @fgetc(ptr noundef %0)
  %.not = icmp eq i32 %5, -1
  br i1 %.not, label %8, label %6

6:                                                ; preds = %2
  %7 = tail call i32 @ungetc(i32 noundef %5, ptr noundef %0)
  br label %8

8:                                                ; preds = %6, %2
  ret void
}